
Build/bootloader.elf:     file format elf32-littlearm


Disassembly of section .text:

08000000 <vectors>:
 8000000:	20018000 	andcs	r8, r1, r0
 8000004:	08000075 	stmdaeq	r0, {r0, r2, r4, r5, r6}
 8000008:	080000d5 	stmdaeq	r0, {r0, r2, r4, r6, r7}
 800000c:	080000d5 	stmdaeq	r0, {r0, r2, r4, r6, r7}
 8000010:	080000d5 	stmdaeq	r0, {r0, r2, r4, r6, r7}
 8000014:	080000d5 	stmdaeq	r0, {r0, r2, r4, r6, r7}
 8000018:	080000d5 	stmdaeq	r0, {r0, r2, r4, r6, r7}
	...
 800002c:	080000d5 	stmdaeq	r0, {r0, r2, r4, r6, r7}
 8000030:	080000d5 	stmdaeq	r0, {r0, r2, r4, r6, r7}
 8000034:	00000000 	andeq	r0, r0, r0
 8000038:	080000d5 	stmdaeq	r0, {r0, r2, r4, r6, r7}
 800003c:	080000dd 	stmdaeq	r0, {r0, r2, r3, r4, r6, r7}

08000040 <main>:
 8000040:	b580      	push	{r7, lr}
 8000042:	af00      	add	r7, sp, #0
 8000044:	f000 f804 	bl	8000050 <Jump_to_App>
 8000048:	2300      	movs	r3, #0
 800004a:	4618      	mov	r0, r3
 800004c:	bd80      	pop	{r7, pc}
	...

08000050 <Jump_to_App>:
 8000050:	b580      	push	{r7, lr}
 8000052:	b084      	sub	sp, #16
 8000054:	af00      	add	r7, sp, #0
 8000056:	4b06      	ldr	r3, [pc, #24]	@ (8000070 <Jump_to_App+0x20>)
 8000058:	60fb      	str	r3, [r7, #12]
 800005a:	68fb      	ldr	r3, [r7, #12]
 800005c:	681b      	ldr	r3, [r3, #0]
 800005e:	60bb      	str	r3, [r7, #8]
 8000060:	68bb      	ldr	r3, [r7, #8]
 8000062:	607b      	str	r3, [r7, #4]
 8000064:	687b      	ldr	r3, [r7, #4]
 8000066:	4798      	blx	r3
 8000068:	bf00      	nop
 800006a:	3710      	adds	r7, #16
 800006c:	46bd      	mov	sp, r7
 800006e:	bd80      	pop	{r7, pc}
 8000070:	08008004 	stmdaeq	r0, {r2, pc}

08000074 <Reset_Handler>:
 8000074:	b580      	push	{r7, lr}
 8000076:	b084      	sub	sp, #16
 8000078:	af00      	add	r7, sp, #0
 800007a:	4b11      	ldr	r3, [pc, #68]	@ (80000c0 <Reset_Handler+0x4c>)
 800007c:	60fb      	str	r3, [r7, #12]
 800007e:	e005      	b.n	800008c <Reset_Handler+0x18>
 8000080:	68fb      	ldr	r3, [r7, #12]
 8000082:	2200      	movs	r2, #0
 8000084:	601a      	str	r2, [r3, #0]
 8000086:	68fb      	ldr	r3, [r7, #12]
 8000088:	3304      	adds	r3, #4
 800008a:	60fb      	str	r3, [r7, #12]
 800008c:	68fb      	ldr	r3, [r7, #12]
 800008e:	4a0d      	ldr	r2, [pc, #52]	@ (80000c4 <Reset_Handler+0x50>)
 8000090:	4293      	cmp	r3, r2
 8000092:	d3f5      	bcc.n	8000080 <Reset_Handler+0xc>
 8000094:	4b0c      	ldr	r3, [pc, #48]	@ (80000c8 <Reset_Handler+0x54>)
 8000096:	60bb      	str	r3, [r7, #8]
 8000098:	4b0c      	ldr	r3, [pc, #48]	@ (80000cc <Reset_Handler+0x58>)
 800009a:	607b      	str	r3, [r7, #4]
 800009c:	e007      	b.n	80000ae <Reset_Handler+0x3a>
 800009e:	687a      	ldr	r2, [r7, #4]
 80000a0:	1d13      	adds	r3, r2, #4
 80000a2:	607b      	str	r3, [r7, #4]
 80000a4:	68bb      	ldr	r3, [r7, #8]
 80000a6:	1d19      	adds	r1, r3, #4
 80000a8:	60b9      	str	r1, [r7, #8]
 80000aa:	6812      	ldr	r2, [r2, #0]
 80000ac:	601a      	str	r2, [r3, #0]
 80000ae:	68bb      	ldr	r3, [r7, #8]
 80000b0:	4a07      	ldr	r2, [pc, #28]	@ (80000d0 <Reset_Handler+0x5c>)
 80000b2:	4293      	cmp	r3, r2
 80000b4:	d3f3      	bcc.n	800009e <Reset_Handler+0x2a>
 80000b6:	f7ff ffc3 	bl	8000040 <main>
 80000ba:	bf00      	nop
 80000bc:	e7fd      	b.n	80000ba <Reset_Handler+0x46>
 80000be:	bf00      	nop
 80000c0:	20000000 	andcs	r0, r0, r0
 80000c4:	20000004 	andcs	r0, r0, r4
 80000c8:	20000000 	andcs	r0, r0, r0
 80000cc:	080000f8 	stmdaeq	r0, {r3, r4, r5, r6, r7}
 80000d0:	20000000 	andcs	r0, r0, r0

080000d4 <Default_Handler>:
 80000d4:	b480      	push	{r7}
 80000d6:	af00      	add	r7, sp, #0
 80000d8:	bf00      	nop
 80000da:	e7fd      	b.n	80000d8 <Default_Handler+0x4>

080000dc <SysTick_Handler>:
 80000dc:	b480      	push	{r7}
 80000de:	af00      	add	r7, sp, #0
 80000e0:	4b04      	ldr	r3, [pc, #16]	@ (80000f4 <SysTick_Handler+0x18>)
 80000e2:	681b      	ldr	r3, [r3, #0]
 80000e4:	3301      	adds	r3, #1
 80000e6:	4a03      	ldr	r2, [pc, #12]	@ (80000f4 <SysTick_Handler+0x18>)
 80000e8:	6013      	str	r3, [r2, #0]
 80000ea:	bf00      	nop
 80000ec:	46bd      	mov	sp, r7
 80000ee:	bc80      	pop	{r7}
 80000f0:	4770      	bx	lr
 80000f2:	bf00      	nop
 80000f4:	20000000 	andcs	r0, r0, r0

Disassembly of section .init:

080000f8 <_init>:
 80000f8:	b5f8      	push	{r3, r4, r5, r6, r7, lr}
 80000fa:	bf00      	nop

Disassembly of section .fini:

080000fc <_fini>:
 80000fc:	b5f8      	push	{r3, r4, r5, r6, r7, lr}
 80000fe:	bf00      	nop
